; Function Attrs: mustprogress nofree norecurse nosync nounwind willreturn memory(read, inaccessiblemem: none) uwtable
define noundef ptr @_ZNK6Assimp8Importer11GetImporterEm(ptr nocapture noundef nonnull readonly align 8 dereferenceable(8) %this, i64 noundef %index) local_unnamed_addr #9 align 2 {
entry:
  %0 = load ptr, ptr %this, align 8
  %mImporter = getelementptr inbounds i8, ptr %0, i64 32
  %_M_finish.i = getelementptr inbounds i8, ptr %0, i64 40
  %1 = load ptr, ptr %_M_finish.i, align 8
  %2 = load ptr, ptr %mImporter, align 8
  %sub.ptr.lhs.cast.i = ptrtoint ptr %1 to i64
  %sub.ptr.rhs.cast.i = ptrtoint ptr %2 to i64
  %sub.ptr.sub.i = sub i64 %sub.ptr.lhs.cast.i, %sub.ptr.rhs.cast.i
  %sub.ptr.div.i = ashr exact i64 %sub.ptr.sub.i, 3
  %cmp.not = icmp ugt i64 %sub.ptr.div.i, %index
  br i1 %cmp.not, label %if.end, label %return

if.end:                                           ; preds = %entry
  %add.ptr.i = getelementptr inbounds ptr, ptr %2, i64 %index
  %3 = load ptr, ptr %add.ptr.i, align 8
  br label %return

return:                                           ; preds = %entry, %if.end
  %retval.0 = phi ptr [ %3, %if.end ], [ null, %entry ]
  ret ptr %retval.0
}